target datalayout = "e-m:e-p270:32:32-p271:32:32-p272:64:64-i64:64-i128:128-f80:128-n8:16:32:64-S128"
target triple = "x86_64-pc-linux-gnu"

%struct.Curl_llist_element = type { ptr, ptr, ptr }
%struct.curltime = type { i64, i32 }
%struct.ssl_primary_config = type { ptr, ptr, ptr, ptr, ptr, ptr, ptr, ptr, ptr, ptr, ptr, ptr, i8, i32, i8, i8 }
%struct.dynbuf = type { ptr, i64, i64, i64 }
%struct.Curl_llist = type { ptr, ptr, ptr, i64 }
%struct.connectdata = type { %struct.Curl_llist_element, ptr, ptr, i64, ptr, ptr, %struct.hostname, ptr, ptr, %struct.hostname, %struct.proxy_info, %struct.proxy_info, [46 x i8], ptr, ptr, ptr, ptr, ptr, %struct.curltime, %struct.curltime, %struct.curltime, [2 x i32], [2 x ptr], [2 x ptr], [2 x ptr], %struct.ssl_primary_config, %struct.ssl_primary_config, %struct.ConnectBits, ptr, ptr, %struct.curltime, i32, i32, %struct.Curl_llist, ptr, ptr, i32, i32, %struct.ntlmdata, %struct.ntlmdata, %union.anon.1, ptr, ptr, i16, i32, i32, i32, i32, i32, i16, i16, i8, i8, i8, i8, i8, i8, i8 }
%struct.hostname = type { ptr, ptr, ptr, ptr }
%struct.proxy_info = type { %struct.hostname, i32, i8, ptr, ptr }
%struct.ConnectBits = type { i32 }
%struct.ntlmdata = type { i32, [8 x i8], i32, ptr }
%union.anon.1 = type { %struct.ftp_conn }
%struct.ftp_conn = type { %struct.pingpong, ptr, ptr, ptr, ptr, ptr, ptr, ptr, i8, i64, ptr, i64, i32, i32, i32, i32, i32, i16, i8, i8, i8, i8, i8 }
%struct.pingpong = type { i64, i8, ptr, i64, i64, %struct.curltime, i64, %struct.dynbuf, %struct.dynbuf, i64, i64, ptr, ptr }
%struct.Curl_cfilter = type { ptr, ptr, ptr, ptr, i32, i8 }
%struct.ssl_connect_data = type { i32, i32, %struct.ssl_peer, ptr, ptr, %struct.cf_call_data, %struct.curltime, i32, i8 }
%struct.ssl_peer = type { ptr, ptr, ptr, i8 }
%struct.cf_call_data = type { ptr }
%struct.in6_addr = type { %union.anon.2 }
%union.anon.2 = type { [4 x i32] }

@Curl_cfree = external global ptr, align 8
@Curl_cstrdup = external global ptr, align 8
@Curl_ccalloc = external global ptr, align 8

; Function Attrs: nounwind uwtable
define internal i32 @is_ip_address(ptr noundef %0) #0 {
  %2 = alloca ptr, align 8
  %3 = alloca %struct.in6_addr, align 4
  store ptr %0, ptr %2, align 8
  %4 = load ptr, ptr %2, align 8
  %5 = icmp ne ptr %4, null
  br i1 %5, label %6, label %22

6:                                                ; preds = %1
  %7 = load ptr, ptr %2, align 8
  %8 = getelementptr inbounds i8, ptr %7, i64 0
  %9 = load i8, ptr %8, align 1
  %10 = sext i8 %9 to i32
  %11 = icmp ne i32 %10, 0
  br i1 %11, label %12, label %22

12:                                               ; preds = %6
  %13 = load ptr, ptr %2, align 8
  %14 = call i32 @inet_pton(i32 noundef 2, ptr noundef %13, ptr noundef %3) #7
  %15 = icmp ne i32 %14, 0
  br i1 %15, label %20, label %16

16:                                               ; preds = %12
  %17 = load ptr, ptr %2, align 8
  %18 = call i32 @inet_pton(i32 noundef 10, ptr noundef %17, ptr noundef %3) #7
  %19 = icmp ne i32 %18, 0
  br label %20

20:                                               ; preds = %16, %12
  %21 = phi i1 [ true, %12 ], [ %19, %16 ]
  br label %22

22:                                               ; preds = %20, %6, %1
  %23 = phi i1 [ false, %6 ], [ false, %1 ], [ %21, %20 ]
  %24 = zext i1 %23 to i32
  ret i32 %24
}

; Function Attrs: nounwind uwtable
define dso_local void @Curl_ssl_peer_cleanup(ptr noundef %0) #0 {
  %2 = alloca ptr, align 8
  store ptr %0, ptr %2, align 8
  %3 = load ptr, ptr %2, align 8
  %4 = getelementptr inbounds %struct.ssl_peer, ptr %3, i32 0, i32 1
  %5 = load ptr, ptr %4, align 8
  %6 = load ptr, ptr %2, align 8
  %7 = getelementptr inbounds %struct.ssl_peer, ptr %6, i32 0, i32 0
  %8 = load ptr, ptr %7, align 8
  %9 = icmp ne ptr %5, %8
  br i1 %9, label %10, label %15

10:                                               ; preds = %1
  %11 = load ptr, ptr @Curl_cfree, align 8
  %12 = load ptr, ptr %2, align 8
  %13 = getelementptr inbounds %struct.ssl_peer, ptr %12, i32 0, i32 1
  %14 = load ptr, ptr %13, align 8
  call void %11(ptr noundef %14)
  br label %15

15:                                               ; preds = %10, %1
  %16 = load ptr, ptr @Curl_cfree, align 8
  %17 = load ptr, ptr %2, align 8
  %18 = getelementptr inbounds %struct.ssl_peer, ptr %17, i32 0, i32 2
  %19 = load ptr, ptr %18, align 8
  call void %16(ptr noundef %19)
  %20 = load ptr, ptr @Curl_cfree, align 8
  %21 = load ptr, ptr %2, align 8
  %22 = getelementptr inbounds %struct.ssl_peer, ptr %21, i32 0, i32 0
  %23 = load ptr, ptr %22, align 8
  call void %20(ptr noundef %23)
  %24 = load ptr, ptr %2, align 8
  %25 = getelementptr inbounds %struct.ssl_peer, ptr %24, i32 0, i32 1
  store ptr null, ptr %25, align 8
  %26 = load ptr, ptr %2, align 8
  %27 = getelementptr inbounds %struct.ssl_peer, ptr %26, i32 0, i32 2
  store ptr null, ptr %27, align 8
  %28 = load ptr, ptr %2, align 8
  %29 = getelementptr inbounds %struct.ssl_peer, ptr %28, i32 0, i32 0
  store ptr null, ptr %29, align 8
  %30 = load ptr, ptr %2, align 8
  %31 = getelementptr inbounds %struct.ssl_peer, ptr %30, i32 0, i32 3
  %32 = load i8, ptr %31, align 8
  %33 = and i8 %32, -2
  %34 = or i8 %33, 0
  store i8 %34, ptr %31, align 8
  ret void
}

; Function Attrs: nounwind uwtable
define dso_local zeroext i1 @Curl_ssl_cf_is_proxy(ptr noundef %0) #0 {
  %2 = alloca ptr, align 8
  store ptr %0, ptr %2, align 8
  %3 = load ptr, ptr %2, align 8
  %4 = getelementptr inbounds %struct.Curl_cfilter, ptr %3, i32 0, i32 0
  %5 = load ptr, ptr %4, align 8
  %6 = icmp eq ptr %5, @Curl_cft_ssl_proxy
  ret i1 %6
}

; Function Attrs: nounwind uwtable
define dso_local i32 @Curl_ssl_peer_init(ptr noundef %0, ptr noundef %1) #0 {
  %3 = alloca i32, align 4
  %4 = alloca ptr, align 8
  %5 = alloca ptr, align 8
  %6 = alloca ptr, align 8
  %7 = alloca ptr, align 8
  %8 = alloca ptr, align 8
  %9 = alloca i32, align 4
  %10 = alloca i64, align 8
  store ptr %0, ptr %4, align 8
  store ptr %1, ptr %5, align 8
  %11 = load ptr, ptr %5, align 8
  %12 = getelementptr inbounds %struct.Curl_cfilter, ptr %11, i32 0, i32 2
  %13 = load ptr, ptr %12, align 8
  store ptr %13, ptr %6, align 8
  %14 = load ptr, ptr %5, align 8
  %15 = call zeroext i1 @Curl_ssl_cf_is_proxy(ptr noundef %14)
  br i1 %15, label %16, label %37

16:                                               ; preds = %2
  %17 = load ptr, ptr %5, align 8
  %18 = getelementptr inbounds %struct.Curl_cfilter, ptr %17, i32 0, i32 3
  %19 = load ptr, ptr %18, align 8
  %20 = getelementptr inbounds %struct.connectdata, ptr %19, i32 0, i32 11
  %21 = getelementptr inbounds %struct.proxy_info, ptr %20, i32 0, i32 0
  %22 = getelementptr inbounds %struct.hostname, ptr %21, i32 0, i32 2
  %23 = load ptr, ptr %22, align 8
  store ptr %23, ptr %7, align 8
  %24 = load ptr, ptr %5, align 8
  %25 = getelementptr inbounds %struct.Curl_cfilter, ptr %24, i32 0, i32 3
  %26 = load ptr, ptr %25, align 8
  %27 = getelementptr inbounds %struct.connectdata, ptr %26, i32 0, i32 11
  %28 = getelementptr inbounds %struct.proxy_info, ptr %27, i32 0, i32 0
  %29 = getelementptr inbounds %struct.hostname, ptr %28, i32 0, i32 3
  %30 = load ptr, ptr %29, align 8
  store ptr %30, ptr %8, align 8
  %31 = load ptr, ptr %5, align 8
  %32 = getelementptr inbounds %struct.Curl_cfilter, ptr %31, i32 0, i32 3
  %33 = load ptr, ptr %32, align 8
  %34 = getelementptr inbounds %struct.connectdata, ptr %33, i32 0, i32 11
  %35 = getelementptr inbounds %struct.proxy_info, ptr %34, i32 0, i32 1
  %36 = load i32, ptr %35, align 8
  store i32 %36, ptr %9, align 4
  br label %55

37:                                               ; preds = %2
  %38 = load ptr, ptr %5, align 8
  %39 = getelementptr inbounds %struct.Curl_cfilter, ptr %38, i32 0, i32 3
  %40 = load ptr, ptr %39, align 8
  %41 = getelementptr inbounds %struct.connectdata, ptr %40, i32 0, i32 6
  %42 = getelementptr inbounds %struct.hostname, ptr %41, i32 0, i32 2
  %43 = load ptr, ptr %42, align 8
  store ptr %43, ptr %7, align 8
  %44 = load ptr, ptr %5, align 8
  %45 = getelementptr inbounds %struct.Curl_cfilter, ptr %44, i32 0, i32 3
  %46 = load ptr, ptr %45, align 8
  %47 = getelementptr inbounds %struct.connectdata, ptr %46, i32 0, i32 6
  %48 = getelementptr inbounds %struct.hostname, ptr %47, i32 0, i32 3
  %49 = load ptr, ptr %48, align 8
  store ptr %49, ptr %8, align 8
  %50 = load ptr, ptr %5, align 8
  %51 = getelementptr inbounds %struct.Curl_cfilter, ptr %50, i32 0, i32 3
  %52 = load ptr, ptr %51, align 8
  %53 = getelementptr inbounds %struct.connectdata, ptr %52, i32 0, i32 46
  %54 = load i32, ptr %53, align 4
  store i32 %54, ptr %9, align 4
  br label %55

55:                                               ; preds = %37, %16
  %56 = load ptr, ptr %7, align 8
  %57 = icmp ne ptr %56, null
  br i1 %57, label %58, label %191

58:                                               ; preds = %55
  %59 = load ptr, ptr %4, align 8
  %60 = getelementptr inbounds %struct.ssl_peer, ptr %59, i32 0, i32 0
  %61 = load ptr, ptr %60, align 8
  %62 = icmp ne ptr %61, null
  br i1 %62, label %63, label %70

63:                                               ; preds = %58
  %64 = load ptr, ptr %7, align 8
  %65 = load ptr, ptr %4, align 8
  %66 = getelementptr inbounds %struct.ssl_peer, ptr %65, i32 0, i32 0
  %67 = load ptr, ptr %66, align 8
  %68 = call i32 @strcmp(ptr noundef %64, ptr noundef %67) #6
  %69 = icmp ne i32 %68, 0
  br i1 %69, label %70, label %191

70:                                               ; preds = %63, %58
  %71 = load ptr, ptr %4, align 8
  call void @Curl_ssl_peer_cleanup(ptr noundef %71)
  %72 = load ptr, ptr @Curl_cstrdup, align 8
  %73 = load ptr, ptr %7, align 8
  %74 = call ptr %72(ptr noundef %73)
  %75 = load ptr, ptr %4, align 8
  %76 = getelementptr inbounds %struct.ssl_peer, ptr %75, i32 0, i32 0
  store ptr %74, ptr %76, align 8
  %77 = load ptr, ptr %4, align 8
  %78 = getelementptr inbounds %struct.ssl_peer, ptr %77, i32 0, i32 0
  %79 = load ptr, ptr %78, align 8
  %80 = icmp ne ptr %79, null
  br i1 %80, label %83, label %81

81:                                               ; preds = %70
  %82 = load ptr, ptr %4, align 8
  call void @Curl_ssl_peer_cleanup(ptr noundef %82)
  store i32 27, ptr %3, align 4
  br label %195

83:                                               ; preds = %70
  %84 = load ptr, ptr %8, align 8
  %85 = icmp ne ptr %84, null
  br i1 %85, label %86, label %91

86:                                               ; preds = %83
  %87 = load ptr, ptr %7, align 8
  %88 = load ptr, ptr %8, align 8
  %89 = call i32 @strcmp(ptr noundef %87, ptr noundef %88) #6
  %90 = icmp ne i32 %89, 0
  br i1 %90, label %97, label %91

91:                                               ; preds = %86, %83
  %92 = load ptr, ptr %4, align 8
  %93 = getelementptr inbounds %struct.ssl_peer, ptr %92, i32 0, i32 0
  %94 = load ptr, ptr %93, align 8
  %95 = load ptr, ptr %4, align 8
  %96 = getelementptr inbounds %struct.ssl_peer, ptr %95, i32 0, i32 1
  store ptr %94, ptr %96, align 8
  br label %110

97:                                               ; preds = %86
  %98 = load ptr, ptr @Curl_cstrdup, align 8
  %99 = load ptr, ptr %8, align 8
  %100 = call ptr %98(ptr noundef %99)
  %101 = load ptr, ptr %4, align 8
  %102 = getelementptr inbounds %struct.ssl_peer, ptr %101, i32 0, i32 1
  store ptr %100, ptr %102, align 8
  %103 = load ptr, ptr %4, align 8
  %104 = getelementptr inbounds %struct.ssl_peer, ptr %103, i32 0, i32 1
  %105 = load ptr, ptr %104, align 8
  %106 = icmp ne ptr %105, null
  br i1 %106, label %109, label %107

107:                                              ; preds = %97
  %108 = load ptr, ptr %4, align 8
  call void @Curl_ssl_peer_cleanup(ptr noundef %108)
  store i32 27, ptr %3, align 4
  br label %195

109:                                              ; preds = %97
  br label %110

110:                                              ; preds = %109, %91
  %111 = load ptr, ptr %4, align 8
  %112 = getelementptr inbounds %struct.ssl_peer, ptr %111, i32 0, i32 2
  store ptr null, ptr %112, align 8
  %113 = load ptr, ptr %4, align 8
  %114 = getelementptr inbounds %struct.ssl_peer, ptr %113, i32 0, i32 0
  %115 = load ptr, ptr %114, align 8
  %116 = call i32 @is_ip_address(ptr noundef %115)
  %117 = icmp ne i32 %116, 0
  %118 = select i1 %117, i32 1, i32 0
  %119 = load ptr, ptr %4, align 8
  %120 = getelementptr inbounds %struct.ssl_peer, ptr %119, i32 0, i32 3
  %121 = trunc i32 %118 to i8
  %122 = load i8, ptr %120, align 8
  %123 = and i8 %121, 1
  %124 = and i8 %122, -2
  %125 = or i8 %124, %123
  store i8 %125, ptr %120, align 8
  %126 = load ptr, ptr %4, align 8
  %127 = getelementptr inbounds %struct.ssl_peer, ptr %126, i32 0, i32 0
  %128 = load ptr, ptr %127, align 8
  %129 = getelementptr inbounds i8, ptr %128, i64 0
  %130 = load i8, ptr %129, align 1
  %131 = sext i8 %130 to i32
  %132 = icmp ne i32 %131, 0
  br i1 %132, label %133, label %190

133:                                              ; preds = %110
  %134 = load ptr, ptr %4, align 8
  %135 = getelementptr inbounds %struct.ssl_peer, ptr %134, i32 0, i32 3
  %136 = load i8, ptr %135, align 8
  %137 = and i8 %136, 1
  %138 = zext i8 %137 to i32
  %139 = icmp ne i32 %138, 0
  br i1 %139, label %190, label %140

140:                                              ; preds = %133
  %141 = load ptr, ptr %4, align 8
  %142 = getelementptr inbounds %struct.ssl_peer, ptr %141, i32 0, i32 0
  %143 = load ptr, ptr %142, align 8
  %144 = call i64 @strlen(ptr noundef %143) #6
  store i64 %144, ptr %10, align 8
  %145 = load i64, ptr %10, align 8
  %146 = icmp ne i64 %145, 0
  br i1 %146, label %147, label %160

147:                                              ; preds = %140
  %148 = load ptr, ptr %4, align 8
  %149 = getelementptr inbounds %struct.ssl_peer, ptr %148, i32 0, i32 0
  %150 = load ptr, ptr %149, align 8
  %151 = load i64, ptr %10, align 8
  %152 = sub i64 %151, 1
  %153 = getelementptr inbounds i8, ptr %150, i64 %152
  %154 = load i8, ptr %153, align 1
  %155 = sext i8 %154 to i32
  %156 = icmp eq i32 %155, 46
  br i1 %156, label %157, label %160

157:                                              ; preds = %147
  %158 = load i64, ptr %10, align 8
  %159 = add i64 %158, -1
  store i64 %159, ptr %10, align 8
  br label %160

160:                                              ; preds = %157, %147, %140
  %161 = load i64, ptr %10, align 8
  %162 = icmp ult i64 %161, 65535
  br i1 %162, label %163, label %189

163:                                              ; preds = %160
  %164 = load ptr, ptr @Curl_ccalloc, align 8
  %165 = load i64, ptr %10, align 8
  %166 = add i64 %165, 1
  %167 = call ptr %164(i64 noundef 1, i64 noundef %166)
  %168 = load ptr, ptr %4, align 8
  %169 = getelementptr inbounds %struct.ssl_peer, ptr %168, i32 0, i32 2
  store ptr %167, ptr %169, align 8
  %170 = load ptr, ptr %4, align 8
  %171 = getelementptr inbounds %struct.ssl_peer, ptr %170, i32 0, i32 2
  %172 = load ptr, ptr %171, align 8
  %173 = icmp ne ptr %172, null
  br i1 %173, label %176, label %174

174:                                              ; preds = %163
  %175 = load ptr, ptr %4, align 8
  call void @Curl_ssl_peer_cleanup(ptr noundef %175)
  store i32 27, ptr %3, align 4
  br label %195

176:                                              ; preds = %163
  %177 = load ptr, ptr %4, align 8
  %178 = getelementptr inbounds %struct.ssl_peer, ptr %177, i32 0, i32 2
  %179 = load ptr, ptr %178, align 8
  %180 = load ptr, ptr %4, align 8
  %181 = getelementptr inbounds %struct.ssl_peer, ptr %180, i32 0, i32 0
  %182 = load ptr, ptr %181, align 8
  %183 = load i64, ptr %10, align 8
  call void @Curl_strntolower(ptr noundef %179, ptr noundef %182, i64 noundef %183)
  %184 = load ptr, ptr %4, align 8
  %185 = getelementptr inbounds %struct.ssl_peer, ptr %184, i32 0, i32 2
  %186 = load ptr, ptr %185, align 8
  %187 = load i64, ptr %10, align 8
  %188 = getelementptr inbounds i8, ptr %186, i64 %187
  store i8 0, ptr %188, align 1
  br label %189

189:                                              ; preds = %176, %160
  br label %190

190:                                              ; preds = %189, %133, %110
  br label %191

191:                                              ; preds = %190, %63, %55
  %192 = load i32, ptr %9, align 4
  %193 = load ptr, ptr %6, align 8
  %194 = getelementptr inbounds %struct.ssl_connect_data, ptr %193, i32 0, i32 7
  store i32 %192, ptr %194, align 8
  store i32 0, ptr %3, align 4
  br label %195

195:                                              ; preds = %191, %174, %107, %81
  %196 = load i32, ptr %3, align 4
  ret i32 %196
}