; Function Attrs: nounwind uwtable
define dso_local range(i32 0, 28) i32 @Curl_ssl_peer_init(ptr noundef captures(none) %0, ptr noundef readonly captures(none) %1) local_unnamed_addr #2 {
  %3 = alloca %struct.in6_addr, align 4
  %4 = getelementptr inbounds nuw i8, ptr %1, i64 16
  %5 = load ptr, ptr %4, align 8
  %6 = load ptr, ptr %1, align 8
  %7 = icmp eq ptr %6, @Curl_cft_ssl_proxy
  %8 = getelementptr inbounds nuw i8, ptr %1, i64 24
  %9 = load ptr, ptr %8, align 8
  %. = select i1 %7, i64 216, i64 80
  %.80 = select i1 %7, i64 224, i64 88
  %.81 = select i1 %7, i64 232, i64 1132
  %10 = getelementptr inbounds nuw i8, ptr %9, i64 %.
  %11 = getelementptr inbounds nuw i8, ptr %9, i64 %.80
  %12 = getelementptr inbounds nuw i8, ptr %9, i64 %.81
  %.048 = load i32, ptr %12, align 4
  %.049 = load ptr, ptr %11, align 8
  %.050 = load ptr, ptr %10, align 8
  %.not = icmp eq ptr %.050, null
  br i1 %.not, label %101, label %13

13:                                               ; preds = %2
  %14 = load ptr, ptr %0, align 8
  %.not55 = icmp eq ptr %14, null
  br i1 %.not55, label %17, label %15

15:                                               ; preds = %13
  %16 = tail call i32 @strcmp(ptr noundef nonnull dereferenceable(1) %.050, ptr noundef nonnull dereferenceable(1) %14) #19
  %.not56 = icmp eq i32 %16, 0
  br i1 %.not56, label %101, label %17

17:                                               ; preds = %15, %13
  %18 = getelementptr inbounds nuw i8, ptr %0, i64 8
  %19 = load ptr, ptr %18, align 8
  %.not.i = icmp eq ptr %19, %14
  br i1 %.not.i, label %Curl_ssl_peer_cleanup.exit, label %20

20:                                               ; preds = %17
  %21 = load ptr, ptr @Curl_cfree, align 8
  tail call void %21(ptr noundef %19) #18
  br label %Curl_ssl_peer_cleanup.exit

Curl_ssl_peer_cleanup.exit:                       ; preds = %17, %20
  %22 = load ptr, ptr @Curl_cfree, align 8
  %23 = getelementptr inbounds nuw i8, ptr %0, i64 16
  %24 = load ptr, ptr %23, align 8
  tail call void %22(ptr noundef %24) #18
  %25 = load ptr, ptr @Curl_cfree, align 8
  %26 = load ptr, ptr %0, align 8
  tail call void %25(ptr noundef %26) #18
  %27 = getelementptr inbounds nuw i8, ptr %0, i64 24
  tail call void @llvm.memset.p0.i64(ptr noundef nonnull align 8 dereferenceable(24) %0, i8 0, i64 24, i1 false)
  %28 = load i8, ptr %27, align 8
  %29 = and i8 %28, -2
  store i8 %29, ptr %27, align 8
  %30 = load ptr, ptr @Curl_cstrdup, align 8
  %31 = tail call ptr %30(ptr noundef nonnull %.050) #18
  store ptr %31, ptr %0, align 8
  %.not57 = icmp eq ptr %31, null
  br i1 %.not57, label %32, label %42

32:                                               ; preds = %Curl_ssl_peer_cleanup.exit
  %33 = load ptr, ptr %18, align 8
  %.not.i66 = icmp eq ptr %33, null
  br i1 %.not.i66, label %Curl_ssl_peer_cleanup.exit67, label %34

34:                                               ; preds = %32
  %35 = load ptr, ptr @Curl_cfree, align 8
  tail call void %35(ptr noundef nonnull %33) #18
  br label %Curl_ssl_peer_cleanup.exit67

Curl_ssl_peer_cleanup.exit67:                     ; preds = %32, %34
  %36 = load ptr, ptr @Curl_cfree, align 8
  %37 = load ptr, ptr %23, align 8
  tail call void %36(ptr noundef %37) #18
  %38 = load ptr, ptr @Curl_cfree, align 8
  %39 = load ptr, ptr %0, align 8
  tail call void %38(ptr noundef %39) #18
  tail call void @llvm.memset.p0.i64(ptr noundef nonnull align 8 dereferenceable(24) %0, i8 0, i64 24, i1 false)
  %40 = load i8, ptr %27, align 8
  %41 = and i8 %40, -2
  store i8 %41, ptr %27, align 8
  br label %103

42:                                               ; preds = %Curl_ssl_peer_cleanup.exit
  %.not58 = icmp eq ptr %.049, null
  br i1 %.not58, label %.thread76, label %43

43:                                               ; preds = %42
  %44 = tail call i32 @strcmp(ptr noundef nonnull dereferenceable(1) %.050, ptr noundef nonnull dereferenceable(1) %.049) #19
  %.not59 = icmp eq i32 %44, 0
  br i1 %.not59, label %.thread76, label %45

.thread76:                                        ; preds = %42, %43
  store ptr %31, ptr %18, align 8
  store ptr null, ptr %23, align 8
  call void @llvm.lifetime.start.p0(i64 16, ptr nonnull %3)
  br label %58

45:                                               ; preds = %43
  %46 = load ptr, ptr @Curl_cstrdup, align 8
  %47 = tail call ptr %46(ptr noundef nonnull %.049) #18
  store ptr %47, ptr %18, align 8
  %.not60 = icmp eq ptr %47, null
  %.pre = load ptr, ptr %0, align 8
  br i1 %.not60, label %48, label %57

48:                                               ; preds = %45
  %.not.i68 = icmp eq ptr %.pre, null
  br i1 %.not.i68, label %Curl_ssl_peer_cleanup.exit69, label %49

49:                                               ; preds = %48
  %50 = load ptr, ptr @Curl_cfree, align 8
  tail call void %50(ptr noundef null) #18
  br label %Curl_ssl_peer_cleanup.exit69

Curl_ssl_peer_cleanup.exit69:                     ; preds = %48, %49
  %51 = load ptr, ptr @Curl_cfree, align 8
  %52 = load ptr, ptr %23, align 8
  tail call void %51(ptr noundef %52) #18
  %53 = load ptr, ptr @Curl_cfree, align 8
  %54 = load ptr, ptr %0, align 8
  tail call void %53(ptr noundef %54) #18
  tail call void @llvm.memset.p0.i64(ptr noundef nonnull align 8 dereferenceable(24) %0, i8 0, i64 24, i1 false)
  %55 = load i8, ptr %27, align 8
  %56 = and i8 %55, -2
  store i8 %56, ptr %27, align 8
  br label %103

57:                                               ; preds = %45
  store ptr null, ptr %23, align 8
  call void @llvm.lifetime.start.p0(i64 16, ptr nonnull %3)
  %.not.i70 = icmp eq ptr %.pre, null
  br i1 %.not.i70, label %is_ip_address.exit, label %58

58:                                               ; preds = %.thread76, %57
  %59 = phi ptr [ %31, %.thread76 ], [ %.pre, %57 ]
  %60 = load i8, ptr %59, align 1
  %.not4.i = icmp eq i8 %60, 0
  br i1 %.not4.i, label %is_ip_address.exit, label %61

61:                                               ; preds = %58
  %62 = call i32 @inet_pton(i32 noundef 2, ptr noundef nonnull %59, ptr noundef nonnull %3) #18
  %.not5.i = icmp eq i32 %62, 0
  br i1 %.not5.i, label %63, label %is_ip_address.exit

63:                                               ; preds = %61
  %64 = call i32 @inet_pton(i32 noundef 10, ptr noundef nonnull %59, ptr noundef nonnull %3) #18
  %65 = icmp ne i32 %64, 0
  %66 = zext i1 %65 to i32
  br label %is_ip_address.exit

is_ip_address.exit:                               ; preds = %57, %58, %61, %63
  %67 = phi i32 [ 0, %58 ], [ 0, %57 ], [ 1, %61 ], [ %66, %63 ]
  call void @llvm.lifetime.end.p0(i64 16, ptr nonnull %3)
  %68 = trunc nuw nsw i32 %67 to i8
  %69 = load i8, ptr %27, align 8
  %70 = and i8 %69, -2
  %71 = or disjoint i8 %70, %68
  store i8 %71, ptr %27, align 8
  %72 = load ptr, ptr %0, align 8
  %73 = load i8, ptr %72, align 1
  %.not62 = icmp ne i8 %73, 0
  %.not63 = icmp eq i32 %67, 0
  %or.cond = select i1 %.not62, i1 %.not63, i1 false
  br i1 %or.cond, label %74, label %101

74:                                               ; preds = %is_ip_address.exit
  %75 = call i64 @strlen(ptr noundef nonnull dereferenceable(1) %72) #19
  %.not64 = icmp eq i64 %75, 0
  br i1 %.not64, label %.thread, label %76

76:                                               ; preds = %74
  %77 = getelementptr i8, ptr %72, i64 %75
  %78 = getelementptr i8, ptr %77, i64 -1
  %79 = load i8, ptr %78, align 1
  %80 = icmp eq i8 %79, 46
  %81 = sext i1 %80 to i64
  %spec.select = add i64 %75, %81
  %82 = icmp ult i64 %spec.select, 65535
  br i1 %82, label %.thread, label %101

.thread:                                          ; preds = %74, %76
  %.074 = phi i64 [ %spec.select, %76 ], [ 0, %74 ]
  %83 = load ptr, ptr @Curl_ccalloc, align 8
  %84 = add nuw nsw i64 %.074, 1
  %85 = call ptr %83(i64 noundef 1, i64 noundef %84) #18
  store ptr %85, ptr %23, align 8
  %.not65 = icmp eq ptr %85, null
  br i1 %.not65, label %86, label %97

86:                                               ; preds = %.thread
  %87 = load ptr, ptr %18, align 8
  %88 = load ptr, ptr %0, align 8
  %.not.i71 = icmp eq ptr %87, %88
  br i1 %.not.i71, label %Curl_ssl_peer_cleanup.exit72, label %89

89:                                               ; preds = %86
  %90 = load ptr, ptr @Curl_cfree, align 8
  call void %90(ptr noundef %87) #18
  %.pre75 = load ptr, ptr %23, align 8
  br label %Curl_ssl_peer_cleanup.exit72

Curl_ssl_peer_cleanup.exit72:                     ; preds = %86, %89
  %91 = phi ptr [ null, %86 ], [ %.pre75, %89 ]
  %92 = load ptr, ptr @Curl_cfree, align 8
  call void %92(ptr noundef %91) #18
  %93 = load ptr, ptr @Curl_cfree, align 8
  %94 = load ptr, ptr %0, align 8
  call void %93(ptr noundef %94) #18
  call void @llvm.memset.p0.i64(ptr noundef nonnull align 8 dereferenceable(24) %0, i8 0, i64 24, i1 false)
  %95 = load i8, ptr %27, align 8
  %96 = and i8 %95, -2
  store i8 %96, ptr %27, align 8
  br label %103

97:                                               ; preds = %.thread
  %98 = load ptr, ptr %0, align 8
  call void @Curl_strntolower(ptr noundef nonnull %85, ptr noundef %98, i64 noundef %.074) #18
  %99 = load ptr, ptr %23, align 8
  %100 = getelementptr inbounds nuw i8, ptr %99, i64 %.074
  store i8 0, ptr %100, align 1
  br label %101

101:                                              ; preds = %is_ip_address.exit, %97, %76, %15, %2
  %102 = getelementptr inbounds nuw i8, ptr %5, i64 80
  store i32 %.048, ptr %102, align 8
  br label %103

103:                                              ; preds = %101, %Curl_ssl_peer_cleanup.exit72, %Curl_ssl_peer_cleanup.exit69, %Curl_ssl_peer_cleanup.exit67
  %.051 = phi i32 [ 0, %101 ], [ 27, %Curl_ssl_peer_cleanup.exit72 ], [ 27, %Curl_ssl_peer_cleanup.exit69 ], [ 27, %Curl_ssl_peer_cleanup.exit67 ]
  ret i32 %.051
}